target datalayout = "e-m:e-p270:32:32-p271:32:32-p272:64:64-i64:64-i128:128-f80:128-n8:16:32:64-S128"
target triple = "x86_64-pc-linux-gnu"

@_ZTIN5faiss5IndexE = external constant ptr
@_ZTIN5faiss8IndexIVFE = external constant ptr

; Function Attrs: mustprogress nounwind uwtable
define ptr @faiss_IndexIVF_cast(ptr noundef %0) #4 {
  %2 = alloca ptr, align 8
  store ptr %0, ptr %2, align 8, !tbaa !38
  %3 = load ptr, ptr %2, align 8, !tbaa !38
  %4 = icmp eq ptr %3, null
  br i1 %4, label %7, label %5

5:                                                ; preds = %1
  %6 = call ptr @__dynamic_cast(ptr %3, ptr @_ZTIN5faiss5IndexE, ptr @_ZTIN5faiss8IndexIVFE, i64 0) #3
  br label %8

7:                                                ; preds = %1
  br label %8

8:                                                ; preds = %7, %5
  %9 = phi ptr [ %6, %5 ], [ null, %7 ]
  ret ptr %9
}